; Function Attrs: nounwind uwtable
define noalias ptr @l_Lean_mkArrowN(ptr noundef readonly captures(none) %0, ptr noundef %1, ptr noundef readnone captures(none) %2, ptr noundef %3, ptr noundef %4) local_unnamed_addr #1 {
lean_nat_lt.exit:
  %5 = getelementptr i8, ptr %0, i64 8
  %.val = load i64, ptr %5, align 8, !tbaa !12
  %.mask = and i64 %.val, 9223372036854775807
  %.not = icmp eq i64 %.mask, 0
  br i1 %.not, label %lean_dec.exit20, label %lean_dec.exit

lean_dec.exit20:                                  ; preds = %lean_nat_lt.exit
  tail call void @lean_inc_heartbeat() #7
  %6 = tail call noalias ptr @mi_malloc_small(i64 noundef 24) #7
  %7 = icmp eq ptr %6, null
  br i1 %7, label %8, label %lean_alloc_ctor.exit

8:                                                ; preds = %lean_dec.exit20
  tail call void @lean_internal_panic_out_of_memory() #8
  unreachable

lean_alloc_ctor.exit:                             ; preds = %lean_dec.exit20
  %9 = getelementptr inbounds nuw i8, ptr %6, i64 4
  store i32 1, ptr %6, align 4, !tbaa !4
  store i32 131096, ptr %9, align 4
  %10 = getelementptr inbounds nuw i8, ptr %6, i64 8
  store ptr %1, ptr %10, align 8, !tbaa !9
  %11 = getelementptr inbounds nuw i8, ptr %6, i64 16
  store ptr %4, ptr %11, align 8, !tbaa !9
  br label %13

lean_dec.exit:                                    ; preds = %lean_nat_lt.exit
  %12 = tail call ptr @l_Array_foldrMUnsafe_fold___at_Lean_mkArrowN___spec__1(ptr noundef nonnull %0, i64 noundef %.mask, i64 noundef 0, ptr noundef %1, ptr poison, ptr noundef %3, ptr noundef %4)
  br label %13

13:                                               ; preds = %lean_dec.exit, %lean_alloc_ctor.exit
  %.0 = phi ptr [ %6, %lean_alloc_ctor.exit ], [ %12, %lean_dec.exit ]
  ret ptr %.0
}